target datalayout = "e-m:e-p270:32:32-p271:32:32-p272:64:64-i64:64-i128:128-f80:128-n8:16:32:64-S128"
target triple = "x86_64-pc-linux-gnu"

%"struct.Yosys::RTLIL::Const" = type { i16, i8, %union.anon }
%union.anon = type { %"class.std::__cxx11::basic_string" }
%"class.std::__cxx11::basic_string" = type { %"struct.std::__cxx11::basic_string<char>::_Alloc_hider", i64, %union.anon.3 }
%"struct.std::__cxx11::basic_string<char>::_Alloc_hider" = type { ptr }
%union.anon.3 = type { i64, [8 x i8] }
%"struct.std::_Vector_base" = type { %"struct.std::_Vector_base<Yosys::RTLIL::State, std::allocator<Yosys::RTLIL::State>>::_Vector_impl" }
%"struct.std::_Vector_base<Yosys::RTLIL::State, std::allocator<Yosys::RTLIL::State>>::_Vector_impl" = type { %"struct.std::_Vector_base<Yosys::RTLIL::State, std::allocator<Yosys::RTLIL::State>>::_Vector_impl_data" }
%"struct.std::_Vector_base<Yosys::RTLIL::State, std::allocator<Yosys::RTLIL::State>>::_Vector_impl_data" = type { ptr, ptr, ptr }
%"class.Yosys::RTLIL::Const::const_iterator" = type { ptr, i64 }

; Function Attrs: mustprogress nounwind uwtable
define linkonce_odr void @_ZN5Yosys5RTLIL5Const14const_iteratorC2ERKS1_m(ptr noundef nonnull align 8 dereferenceable(16) %0, ptr noundef nonnull align 8 dereferenceable(40) %1, i64 noundef %2) unnamed_addr #6 comdat align 2 {
  %4 = alloca ptr, align 8
  %5 = alloca ptr, align 8
  %6 = alloca i64, align 8
  store ptr %0, ptr %4, align 8, !tbaa !62
  store ptr %1, ptr %5, align 8, !tbaa !6
  store i64 %2, ptr %6, align 8, !tbaa !24
  %7 = load ptr, ptr %4, align 8
  %8 = getelementptr inbounds nuw %"class.Yosys::RTLIL::Const::const_iterator", ptr %7, i32 0, i32 0
  %9 = load ptr, ptr %5, align 8, !tbaa !6
  store ptr %9, ptr %8, align 8, !tbaa !6
  %10 = getelementptr inbounds nuw %"class.Yosys::RTLIL::Const::const_iterator", ptr %7, i32 0, i32 1
  %11 = load i64, ptr %6, align 8, !tbaa !24
  store i64 %11, ptr %10, align 8, !tbaa !66
  ret void
}

; Function Attrs: mustprogress nounwind uwtable
define linkonce_odr noundef nonnull align 1 dereferenceable(1) ptr @_ZNSt6vectorIN5Yosys5RTLIL5StateESaIS2_EEixEm(ptr noundef nonnull align 8 dereferenceable(24) %0, i64 noundef %1) #6 comdat align 2 {
  %3 = alloca ptr, align 8
  %4 = alloca i64, align 8
  store ptr %0, ptr %3, align 8, !tbaa !22
  store i64 %1, ptr %4, align 8, !tbaa !24
  %5 = load ptr, ptr %3, align 8
  %6 = getelementptr inbounds nuw %"struct.std::_Vector_base", ptr %5, i32 0, i32 0
  %7 = getelementptr inbounds nuw %"struct.std::_Vector_base<Yosys::RTLIL::State, std::allocator<Yosys::RTLIL::State>>::_Vector_impl_data", ptr %6, i32 0, i32 0
  %8 = load ptr, ptr %7, align 8, !tbaa !26
  %9 = load i64, ptr %4, align 8, !tbaa !24
  %10 = getelementptr inbounds nuw i8, ptr %8, i64 %9
  ret ptr %10
}

; Function Attrs: mustprogress uwtable
define linkonce_odr noundef zeroext i8 @_ZNK5Yosys5RTLIL5ConstixEm(ptr noundef nonnull align 8 dereferenceable(40) %0, i64 noundef %1) #4 comdat align 2 {
  %3 = alloca ptr, align 8
  %4 = alloca i64, align 8
  %5 = alloca %"class.Yosys::RTLIL::Const::const_iterator", align 8
  store ptr %0, ptr %3, align 8, !tbaa !6
  store i64 %1, ptr %4, align 8, !tbaa !24
  %6 = load ptr, ptr %3, align 8
  call void @llvm.lifetime.start.p0(i64 16, ptr %5) #3
  %7 = load i64, ptr %4, align 8, !tbaa !24
  call void @_ZN5Yosys5RTLIL5Const14const_iteratorC2ERKS1_m(ptr noundef nonnull align 8 dereferenceable(16) %5, ptr noundef nonnull align 8 dereferenceable(40) %6, i64 noundef %7)
  %8 = call noundef zeroext i8 @_ZNK5Yosys5RTLIL5Const14const_iteratordeEv(ptr noundef nonnull align 8 dereferenceable(16) %5)
  call void @llvm.lifetime.end.p0(i64 16, ptr %5) #3
  ret i8 %8
}

; Function Attrs: mustprogress uwtable
define void @_ZN5Yosys5RTLIL11const_bwmuxERKNS0_5ConstES3_S3_(ptr dead_on_unwind noalias writable sret(%"struct.Yosys::RTLIL::Const") align 8 %0, ptr noundef nonnull align 8 dereferenceable(40) %1, ptr noundef nonnull align 8 dereferenceable(40) %2, ptr noundef nonnull align 8 dereferenceable(40) %3) #4 personality ptr @__gxx_personality_v0 {
  %5 = alloca ptr, align 8
  %6 = alloca ptr, align 8
  %7 = alloca ptr, align 8
  %8 = alloca ptr, align 8
  %9 = alloca i1, align 1
  %10 = alloca i32, align 4
  %11 = alloca ptr, align 8
  %12 = alloca i32, align 4
  store ptr %0, ptr %5, align 8
  store ptr %1, ptr %6, align 8, !tbaa !6
  store ptr %2, ptr %7, align 8, !tbaa !6
  store ptr %3, ptr %8, align 8, !tbaa !6
  br label %13

13:                                               ; preds = %4
  br label %14

14:                                               ; preds = %13
  br label %15

15:                                               ; preds = %14
  br label %16

16:                                               ; preds = %15
  store i1 false, ptr %9, align 1
  %17 = load ptr, ptr %6, align 8, !tbaa !6
  %18 = call noundef i32 @_ZNK5Yosys5RTLIL5Const4sizeEv(ptr noundef nonnull align 8 dereferenceable(40) %17)
  call void @_ZN5Yosys5RTLIL5ConstC1ENS0_5StateEi(ptr noundef nonnull align 8 dereferenceable(40) %0, i8 noundef zeroext 2, i32 noundef %18)
  call void @llvm.lifetime.start.p0(i64 4, ptr %10) #3
  store i32 0, ptr %10, align 4, !tbaa !13
  br label %19

19:                                               ; preds = %80, %16
  %20 = load i32, ptr %10, align 4, !tbaa !13
  %21 = load ptr, ptr %6, align 8, !tbaa !6
  %22 = invoke noundef i32 @_ZNK5Yosys5RTLIL5Const4sizeEv(ptr noundef nonnull align 8 dereferenceable(40) %21)
          to label %23 unwind label %26

23:                                               ; preds = %19
  %24 = icmp slt i32 %20, %22
  br i1 %24, label %30, label %25

25:                                               ; preds = %23
  call void @llvm.lifetime.end.p0(i64 4, ptr %10) #3
  br label %83

26:                                               ; preds = %72, %66, %60, %52, %43, %38, %30, %19
  %27 = landingpad { ptr, i32 }
          cleanup
  %28 = extractvalue { ptr, i32 } %27, 0
  store ptr %28, ptr %11, align 8
  %29 = extractvalue { ptr, i32 } %27, 1
  store i32 %29, ptr %12, align 4
  call void @llvm.lifetime.end.p0(i64 4, ptr %10) #3
  call void @_ZN5Yosys5RTLIL5ConstD1Ev(ptr noundef nonnull align 8 dereferenceable(40) %0) #3
  br label %87

30:                                               ; preds = %23
  %31 = load ptr, ptr %8, align 8, !tbaa !6
  %32 = load i32, ptr %10, align 4, !tbaa !13
  %33 = sext i32 %32 to i64
  %34 = invoke noundef zeroext i8 @_ZNK5Yosys5RTLIL5ConstixEm(ptr noundef nonnull align 8 dereferenceable(40) %31, i64 noundef %33)
          to label %35 unwind label %26

35:                                               ; preds = %30
  %36 = zext i8 %34 to i32
  %37 = icmp ne i32 %36, 2
  br i1 %37, label %52, label %38

38:                                               ; preds = %35
  %39 = load ptr, ptr %6, align 8, !tbaa !6
  %40 = load i32, ptr %10, align 4, !tbaa !13
  %41 = sext i32 %40 to i64
  %42 = invoke noundef zeroext i8 @_ZNK5Yosys5RTLIL5ConstixEm(ptr noundef nonnull align 8 dereferenceable(40) %39, i64 noundef %41)
          to label %43 unwind label %26

43:                                               ; preds = %38
  %44 = zext i8 %42 to i32
  %45 = load ptr, ptr %7, align 8, !tbaa !6
  %46 = load i32, ptr %10, align 4, !tbaa !13
  %47 = sext i32 %46 to i64
  %48 = invoke noundef zeroext i8 @_ZNK5Yosys5RTLIL5ConstixEm(ptr noundef nonnull align 8 dereferenceable(40) %45, i64 noundef %47)
          to label %49 unwind label %26

49:                                               ; preds = %43
  %50 = zext i8 %48 to i32
  %51 = icmp eq i32 %44, %50
  br i1 %51, label %52, label %79

52:                                               ; preds = %49, %35
  %53 = load ptr, ptr %8, align 8, !tbaa !6
  %54 = load i32, ptr %10, align 4, !tbaa !13
  %55 = sext i32 %54 to i64
  %56 = invoke noundef zeroext i8 @_ZNK5Yosys5RTLIL5ConstixEm(ptr noundef nonnull align 8 dereferenceable(40) %53, i64 noundef %55)
          to label %57 unwind label %26

57:                                               ; preds = %52
  %58 = zext i8 %56 to i32
  %59 = icmp eq i32 %58, 1
  br i1 %59, label %60, label %66

60:                                               ; preds = %57
  %61 = load ptr, ptr %7, align 8, !tbaa !6
  %62 = load i32, ptr %10, align 4, !tbaa !13
  %63 = sext i32 %62 to i64
  %64 = invoke noundef zeroext i8 @_ZNK5Yosys5RTLIL5ConstixEm(ptr noundef nonnull align 8 dereferenceable(40) %61, i64 noundef %63)
          to label %65 unwind label %26

65:                                               ; preds = %60
  br label %72

66:                                               ; preds = %57
  %67 = load ptr, ptr %6, align 8, !tbaa !6
  %68 = load i32, ptr %10, align 4, !tbaa !13
  %69 = sext i32 %68 to i64
  %70 = invoke noundef zeroext i8 @_ZNK5Yosys5RTLIL5ConstixEm(ptr noundef nonnull align 8 dereferenceable(40) %67, i64 noundef %69)
          to label %71 unwind label %26

71:                                               ; preds = %66
  br label %72

72:                                               ; preds = %71, %65
  %73 = phi i8 [ %64, %65 ], [ %70, %71 ]
  %74 = invoke noundef nonnull align 8 dereferenceable(24) ptr @_ZN5Yosys5RTLIL5Const4bitsEv(ptr noundef nonnull align 8 dereferenceable(40) %0)
          to label %75 unwind label %26

75:                                               ; preds = %72
  %76 = load i32, ptr %10, align 4, !tbaa !13
  %77 = sext i32 %76 to i64
  %78 = call noundef nonnull align 1 dereferenceable(1) ptr @_ZNSt6vectorIN5Yosys5RTLIL5StateESaIS2_EEixEm(ptr noundef nonnull align 8 dereferenceable(24) %74, i64 noundef %77) #3
  store i8 %73, ptr %78, align 1, !tbaa !17
  br label %79

79:                                               ; preds = %75, %49
  br label %80

80:                                               ; preds = %79
  %81 = load i32, ptr %10, align 4, !tbaa !13
  %82 = add nsw i32 %81, 1
  store i32 %82, ptr %10, align 4, !tbaa !13
  br label %19, !llvm.loop !91

83:                                               ; preds = %25
  store i1 true, ptr %9, align 1
  %84 = load i1, ptr %9, align 1
  br i1 %84, label %86, label %85

85:                                               ; preds = %83
  call void @_ZN5Yosys5RTLIL5ConstD1Ev(ptr noundef nonnull align 8 dereferenceable(40) %0) #3
  br label %86

86:                                               ; preds = %85, %83
  ret void

87:                                               ; preds = %26
  %88 = load ptr, ptr %11, align 8
  %89 = load i32, ptr %12, align 4
  %90 = insertvalue { ptr, i32 } poison, ptr %88, 0
  %91 = insertvalue { ptr, i32 } %90, i32 %89, 1
  resume { ptr, i32 } %91
}