; Function Attrs: mustprogress uwtable
define void @_ZN5Yosys5RTLIL11const_bwmuxERKNS0_5ConstES3_S3_(ptr dead_on_unwind noalias writable sret(%"struct.Yosys::RTLIL::Const") align 8 %0, ptr noundef nonnull align 8 dereferenceable(40) %1, ptr noundef nonnull align 8 dereferenceable(40) %2, ptr noundef nonnull align 8 dereferenceable(40) %3) local_unnamed_addr #3 personality ptr @__gxx_personality_v0 {
  %5 = alloca %"class.Yosys::RTLIL::Const::const_iterator", align 8
  %6 = alloca %"class.Yosys::RTLIL::Const::const_iterator", align 8
  %7 = alloca %"class.Yosys::RTLIL::Const::const_iterator", align 8
  %8 = alloca %"class.Yosys::RTLIL::Const::const_iterator", align 8
  %9 = alloca %"class.Yosys::RTLIL::Const::const_iterator", align 8
  %10 = alloca %"class.Yosys::RTLIL::Const::const_iterator", align 8
  %11 = tail call noundef i32 @_ZNK5Yosys5RTLIL5Const4sizeEv(ptr noundef nonnull align 8 dereferenceable(40) %1)
  tail call void @_ZN5Yosys5RTLIL5ConstC1ENS0_5StateEi(ptr noundef nonnull align 8 dereferenceable(40) %0, i8 noundef zeroext 2, i32 noundef %11)
  %12 = getelementptr inbounds nuw i8, ptr %10, i64 8
  %13 = getelementptr inbounds nuw i8, ptr %9, i64 8
  %14 = getelementptr inbounds nuw i8, ptr %8, i64 8
  %15 = getelementptr inbounds nuw i8, ptr %7, i64 8
  %16 = getelementptr inbounds nuw i8, ptr %5, i64 8
  %17 = getelementptr inbounds nuw i8, ptr %6, i64 8
  br label %18

18:                                               ; preds = %48, %4
  %indvars.iv = phi i64 [ %indvars.iv.next, %48 ], [ 0, %4 ]
  %19 = invoke noundef i32 @_ZNK5Yosys5RTLIL5Const4sizeEv(ptr noundef nonnull align 8 dereferenceable(40) %1)
          to label %20 unwind label %23

20:                                               ; preds = %18
  %21 = sext i32 %19 to i64
  %22 = icmp slt i64 %indvars.iv, %21
  br i1 %22, label %25, label %49

23:                                               ; preds = %40, %38, %34, %30, %28, %25, %42, %18
  %24 = landingpad { ptr, i32 }
          cleanup
  call void @_ZN5Yosys5RTLIL5ConstD1Ev(ptr noundef nonnull align 8 dereferenceable(40) %0) #19
  resume { ptr, i32 } %24

25:                                               ; preds = %20
  call void @llvm.lifetime.start.p0(i64 16, ptr nonnull %10) #19
  store ptr %3, ptr %10, align 8, !tbaa !20
  store i64 %indvars.iv, ptr %12, align 8, !tbaa !22
  %26 = invoke noundef zeroext i8 @_ZNK5Yosys5RTLIL5Const14const_iteratordeEv(ptr noundef nonnull align 8 dereferenceable(16) %10)
          to label %27 unwind label %23

27:                                               ; preds = %25
  call void @llvm.lifetime.end.p0(i64 16, ptr nonnull %10) #19
  %.not = icmp eq i8 %26, 2
  br i1 %.not, label %28, label %34

28:                                               ; preds = %27
  call void @llvm.lifetime.start.p0(i64 16, ptr nonnull %9) #19
  store ptr %1, ptr %9, align 8, !tbaa !20
  store i64 %indvars.iv, ptr %13, align 8, !tbaa !22
  %29 = invoke noundef zeroext i8 @_ZNK5Yosys5RTLIL5Const14const_iteratordeEv(ptr noundef nonnull align 8 dereferenceable(16) %9)
          to label %30 unwind label %23

30:                                               ; preds = %28
  call void @llvm.lifetime.end.p0(i64 16, ptr nonnull %9) #19
  call void @llvm.lifetime.start.p0(i64 16, ptr nonnull %8) #19
  store ptr %2, ptr %8, align 8, !tbaa !20
  store i64 %indvars.iv, ptr %14, align 8, !tbaa !22
  %31 = invoke noundef zeroext i8 @_ZNK5Yosys5RTLIL5Const14const_iteratordeEv(ptr noundef nonnull align 8 dereferenceable(16) %8)
          to label %32 unwind label %23

32:                                               ; preds = %30
  call void @llvm.lifetime.end.p0(i64 16, ptr nonnull %8) #19
  %33 = icmp eq i8 %29, %31
  br i1 %33, label %34, label %48

34:                                               ; preds = %32, %27
  call void @llvm.lifetime.start.p0(i64 16, ptr nonnull %7) #19
  store ptr %3, ptr %7, align 8, !tbaa !20
  store i64 %indvars.iv, ptr %15, align 8, !tbaa !22
  %35 = invoke noundef zeroext i8 @_ZNK5Yosys5RTLIL5Const14const_iteratordeEv(ptr noundef nonnull align 8 dereferenceable(16) %7)
          to label %36 unwind label %23

36:                                               ; preds = %34
  call void @llvm.lifetime.end.p0(i64 16, ptr nonnull %7) #19
  %37 = icmp eq i8 %35, 1
  br i1 %37, label %38, label %40

38:                                               ; preds = %36
  call void @llvm.lifetime.start.p0(i64 16, ptr nonnull %6) #19
  store ptr %2, ptr %6, align 8, !tbaa !20
  store i64 %indvars.iv, ptr %17, align 8, !tbaa !22
  %39 = invoke noundef zeroext i8 @_ZNK5Yosys5RTLIL5Const14const_iteratordeEv(ptr noundef nonnull align 8 dereferenceable(16) %6)
          to label %_ZNK5Yosys5RTLIL5ConstixEm.exit22 unwind label %23

_ZNK5Yosys5RTLIL5ConstixEm.exit22:                ; preds = %38
  call void @llvm.lifetime.end.p0(i64 16, ptr nonnull %6) #19
  br label %42

40:                                               ; preds = %36
  call void @llvm.lifetime.start.p0(i64 16, ptr nonnull %5) #19
  store ptr %1, ptr %5, align 8, !tbaa !20
  store i64 %indvars.iv, ptr %16, align 8, !tbaa !22
  %41 = invoke noundef zeroext i8 @_ZNK5Yosys5RTLIL5Const14const_iteratordeEv(ptr noundef nonnull align 8 dereferenceable(16) %5)
          to label %_ZNK5Yosys5RTLIL5ConstixEm.exit23 unwind label %23

_ZNK5Yosys5RTLIL5ConstixEm.exit23:                ; preds = %40
  call void @llvm.lifetime.end.p0(i64 16, ptr nonnull %5) #19
  br label %42

42:                                               ; preds = %_ZNK5Yosys5RTLIL5ConstixEm.exit23, %_ZNK5Yosys5RTLIL5ConstixEm.exit22
  %43 = phi i8 [ %39, %_ZNK5Yosys5RTLIL5ConstixEm.exit22 ], [ %41, %_ZNK5Yosys5RTLIL5ConstixEm.exit23 ]
  %44 = invoke noundef nonnull align 8 dereferenceable(24) ptr @_ZN5Yosys5RTLIL5Const4bitsEv(ptr noundef nonnull align 8 dereferenceable(40) %0)
          to label %45 unwind label %23

45:                                               ; preds = %42
  %46 = load ptr, ptr %44, align 8, !tbaa !6
  %47 = getelementptr inbounds nuw i8, ptr %46, i64 %indvars.iv
  store i8 %43, ptr %47, align 1, !tbaa !11
  br label %48

48:                                               ; preds = %32, %45
  %indvars.iv.next = add nuw nsw i64 %indvars.iv, 1
  br label %18, !llvm.loop !148

49:                                               ; preds = %20
  ret void
}